target datalayout = "e-m:e-p270:32:32-p271:32:32-p272:64:64-i64:64-i128:128-f80:128-n8:16:32:64-S128"
target triple = "x86_64-pc-linux-gnu"

%"struct.llvm::EVT" = type { %"class.llvm::MVT", ptr }
%"class.llvm::MVT" = type { i16 }
%"class.llvm::StringRef" = type { ptr, i64 }
%"class.llvm::SelectionDAGISel" = type { ptr, ptr, ptr, %"class.std::unique_ptr.92", ptr, ptr, ptr, ptr, ptr, %"class.std::unique_ptr.100", ptr, ptr, ptr, ptr, i32, ptr, ptr, i8, %"class.llvm::SmallPtrSet", %"class.std::unique_ptr.108", i8, %"class.llvm::StringRef", i32, %"class.std::vector.116" }
%"class.std::unique_ptr.92" = type { %"struct.std::__uniq_ptr_data.93" }
%"struct.std::__uniq_ptr_data.93" = type { %"class.std::__uniq_ptr_impl.94" }
%"class.std::__uniq_ptr_impl.94" = type { %"class.std::tuple.95" }
%"class.std::tuple.95" = type { %"struct.std::_Tuple_impl.96" }
%"struct.std::_Tuple_impl.96" = type { %"struct.std::_Head_base.99" }
%"struct.std::_Head_base.99" = type { ptr }
%"class.std::unique_ptr.100" = type { %"struct.std::__uniq_ptr_data.101" }
%"struct.std::__uniq_ptr_data.101" = type { %"class.std::__uniq_ptr_impl.102" }
%"class.std::__uniq_ptr_impl.102" = type { %"class.std::tuple.103" }
%"class.std::tuple.103" = type { %"struct.std::_Tuple_impl.104" }
%"struct.std::_Tuple_impl.104" = type { %"struct.std::_Head_base.107" }
%"struct.std::_Head_base.107" = type { ptr }
%"class.llvm::SmallPtrSet" = type { %"class.llvm::SmallPtrSetImpl.base", [4 x ptr] }
%"class.llvm::SmallPtrSetImpl.base" = type { %"class.llvm::SmallPtrSetImplBase.base" }
%"class.llvm::SmallPtrSetImplBase.base" = type <{ ptr, ptr, i32, i32, i32 }>
%"class.std::unique_ptr.108" = type { %"struct.std::__uniq_ptr_data.109" }
%"struct.std::__uniq_ptr_data.109" = type { %"class.std::__uniq_ptr_impl.110" }
%"class.std::__uniq_ptr_impl.110" = type { %"class.std::tuple.111" }
%"class.std::tuple.111" = type { %"struct.std::_Tuple_impl.112" }
%"struct.std::_Tuple_impl.112" = type { %"struct.std::_Head_base.115" }
%"struct.std::_Head_base.115" = type { ptr }
%"class.std::vector.116" = type { %"struct.std::_Vector_base.117" }
%"struct.std::_Vector_base.117" = type { %"struct.std::_Vector_base<unsigned int, std::allocator<unsigned int>>::_Vector_impl" }
%"struct.std::_Vector_base<unsigned int, std::allocator<unsigned int>>::_Vector_impl" = type { %"struct.std::_Vector_base<unsigned int, std::allocator<unsigned int>>::_Vector_impl_data" }
%"struct.std::_Vector_base<unsigned int, std::allocator<unsigned int>>::_Vector_impl_data" = type { ptr, ptr, ptr }
%"class.llvm::SDValue" = type <{ ptr, i32, [4 x i8] }>
%"class.llvm::DebugLoc" = type { %"class.llvm::TypedTrackingMDRef" }
%"class.llvm::TypedTrackingMDRef" = type { %"class.llvm::TrackingMDRef" }
%"class.llvm::TrackingMDRef" = type { ptr }
%"class.llvm::APInt" = type <{ %union.anon.415, i32, [4 x i8] }>
%union.anon.415 = type { i64 }
%"struct.llvm::SDNodeFlags" = type { i16 }
%"class.llvm::ilist_node_base" = type { %"class.llvm::ilist_detail::node_base_prevnext" }
%"class.llvm::ilist_detail::node_base_prevnext" = type { ptr, ptr }
%"class.llvm::SDNode" = type { %"class.llvm::FoldingSetBase::Node", %"class.llvm::ilist_node", i32, %"struct.llvm::SDNodeFlags", %union.anon.280, i16, i32, ptr, ptr, ptr, i16, i16, i32, %"class.llvm::DebugLoc", i32, i32 }
%"class.llvm::FoldingSetBase::Node" = type { ptr }
%"class.llvm::ilist_node" = type { %"class.llvm::ilist_node_impl.278" }
%"class.llvm::ilist_node_impl.278" = type { %"class.llvm::ilist_node_base" }
%union.anon.280 = type { %"class.llvm::SDNode::LSBaseSDNodeBitfields" }
%"class.llvm::SDNode::LSBaseSDNodeBitfields" = type { i16 }
%"class.llvm::ConstantSDNode" = type { %"class.llvm::SDNode", ptr }
%"class.llvm::ConstantInt" = type { %"class.llvm::ConstantData", %"class.llvm::APInt" }
%"class.llvm::ConstantData" = type { %"class.llvm::Constant" }
%"class.llvm::Constant" = type { %"class.llvm::User" }
%"class.llvm::User" = type { %"class.llvm::Value" }
%"class.llvm::Value" = type { i8, i8, i16, i32, ptr, ptr }

; Function Attrs: mustprogress nounwind uwtable
define linkonce_odr hidden noundef i32 @_ZNK4llvm6SDNode9getOpcodeEv(ptr noundef nonnull align 8 dereferenceable(88) %0) #0 comdat align 2 {
  %2 = alloca ptr, align 8
  store ptr %0, ptr %2, align 8
  %3 = load ptr, ptr %2, align 8
  %4 = getelementptr inbounds nuw %"class.llvm::SDNode", ptr %3, i32 0, i32 2
  %5 = load i32, ptr %4, align 8
  ret i32 %5
}

; Function Attrs: mustprogress nounwind uwtable
define linkonce_odr hidden noundef zeroext i1 @_ZN4llvm14ConstantSDNode7classofEPKNS_6SDNodeE(ptr noundef %0) #0 comdat align 2 {
  %2 = alloca ptr, align 8
  store ptr %0, ptr %2, align 8
  %3 = load ptr, ptr %2, align 8
  %4 = call noundef i32 @_ZNK4llvm6SDNode9getOpcodeEv(ptr noundef nonnull align 8 dereferenceable(88) %3)
  %5 = icmp eq i32 %4, 11
  br i1 %5, label %10, label %6

6:                                                ; preds = %1
  %7 = load ptr, ptr %2, align 8
  %8 = call noundef i32 @_ZNK4llvm6SDNode9getOpcodeEv(ptr noundef nonnull align 8 dereferenceable(88) %7)
  %9 = icmp eq i32 %8, 35
  br label %10

10:                                               ; preds = %6, %1
  %11 = phi i1 [ true, %1 ], [ %9, %6 ]
  ret i1 %11
}

; Function Attrs: mustprogress nounwind uwtable
define linkonce_odr hidden noundef zeroext i1 @_ZN4llvm8isa_implINS_14ConstantSDNodeENS_6SDNodeEvE4doitERKS2_(ptr noundef nonnull align 8 dereferenceable(88) %0) #0 comdat align 2 {
  %2 = alloca ptr, align 8
  store ptr %0, ptr %2, align 8
  %3 = load ptr, ptr %2, align 8
  %4 = call noundef zeroext i1 @_ZN4llvm14ConstantSDNode7classofEPKNS_6SDNodeE(ptr noundef %3)
  ret i1 %4
}

; Function Attrs: mustprogress nounwind uwtable
define linkonce_odr hidden noundef zeroext i1 @_ZN4llvm11isa_impl_clINS_14ConstantSDNodeEPKNS_6SDNodeEE4doitES4_(ptr noundef %0) #0 comdat align 2 {
  %2 = alloca ptr, align 8
  store ptr %0, ptr %2, align 8
  %3 = load ptr, ptr %2, align 8
  %4 = call noundef zeroext i1 @_ZN4llvm8isa_implINS_14ConstantSDNodeENS_6SDNodeEvE4doitERKS2_(ptr noundef nonnull align 8 dereferenceable(88) %3)
  ret i1 %4
}

; Function Attrs: mustprogress nounwind uwtable
define linkonce_odr hidden noundef nonnull align 8 dereferenceable(8) ptr @_ZN4llvm13simplify_typeIPNS_6SDNodeEE18getSimplifiedValueERS2_(ptr noundef nonnull align 8 dereferenceable(8) %0) #0 comdat align 2 {
  %2 = alloca ptr, align 8
  store ptr %0, ptr %2, align 8
  %3 = load ptr, ptr %2, align 8
  ret ptr %3
}

; Function Attrs: mustprogress nounwind uwtable
define linkonce_odr hidden noundef zeroext i1 @_ZN4llvm13isa_impl_wrapINS_14ConstantSDNodeEPKNS_6SDNodeES4_E4doitERKS4_(ptr noundef nonnull align 8 dereferenceable(8) %0) #0 comdat align 2 {
  %2 = alloca ptr, align 8
  store ptr %0, ptr %2, align 8
  %3 = load ptr, ptr %2, align 8
  %4 = load ptr, ptr %3, align 8
  %5 = call noundef zeroext i1 @_ZN4llvm11isa_impl_clINS_14ConstantSDNodeEPKNS_6SDNodeEE4doitES4_(ptr noundef %4)
  ret i1 %5
}

; Function Attrs: mustprogress nounwind uwtable
define linkonce_odr hidden noundef ptr @_ZN4llvm13simplify_typeIKPNS_6SDNodeEE18getSimplifiedValueERS3_(ptr noundef nonnull align 8 dereferenceable(8) %0) #0 comdat align 2 {
  %2 = alloca ptr, align 8
  store ptr %0, ptr %2, align 8
  %3 = load ptr, ptr %2, align 8
  %4 = call noundef nonnull align 8 dereferenceable(8) ptr @_ZN4llvm13simplify_typeIPNS_6SDNodeEE18getSimplifiedValueERS2_(ptr noundef nonnull align 8 dereferenceable(8) %3)
  %5 = load ptr, ptr %4, align 8
  ret ptr %5
}

; Function Attrs: mustprogress nounwind uwtable
define linkonce_odr hidden noundef ptr @_ZN4llvm16cast_convert_valINS_14ConstantSDNodeEPNS_6SDNodeES3_E4doitEPKS2_(ptr noundef %0) #0 comdat align 2 {
  %2 = alloca ptr, align 8
  store ptr %0, ptr %2, align 8
  %3 = load ptr, ptr %2, align 8
  ret ptr %3
}

; Function Attrs: mustprogress nounwind uwtable
define linkonce_odr hidden noundef zeroext i1 @_ZN4llvm13isa_impl_wrapINS_14ConstantSDNodeEKPNS_6SDNodeEPKS2_E4doitERS4_(ptr noundef nonnull align 8 dereferenceable(8) %0) #0 comdat align 2 {
  %2 = alloca ptr, align 8
  %3 = alloca ptr, align 8
  store ptr %0, ptr %2, align 8
  %4 = load ptr, ptr %2, align 8
  %5 = call noundef ptr @_ZN4llvm13simplify_typeIKPNS_6SDNodeEE18getSimplifiedValueERS3_(ptr noundef nonnull align 8 dereferenceable(8) %4)
  store ptr %5, ptr %3, align 8
  %6 = call noundef zeroext i1 @_ZN4llvm13isa_impl_wrapINS_14ConstantSDNodeEPKNS_6SDNodeES4_E4doitERKS4_(ptr noundef nonnull align 8 dereferenceable(8) %3)
  ret i1 %6
}

; Function Attrs: mustprogress nounwind uwtable
define linkonce_odr hidden noundef zeroext i1 @_ZNK4llvm5APInt12isSingleWordEv(ptr noundef nonnull align 8 dereferenceable(12) %0) #0 comdat align 2 {
  %2 = alloca ptr, align 8
  store ptr %0, ptr %2, align 8
  %3 = load ptr, ptr %2, align 8
  %4 = getelementptr inbounds nuw %"class.llvm::APInt", ptr %3, i32 0, i32 1
  %5 = load i32, ptr %4, align 8
  %6 = icmp ule i32 %5, 64
  ret i1 %6
}

; Function Attrs: mustprogress nounwind uwtable
define linkonce_odr hidden noundef ptr @_ZN4llvm8CastInfoINS_14ConstantSDNodeEPNS_6SDNodeEvE6doCastERKS3_(ptr noundef nonnull align 8 dereferenceable(8) %0) #0 comdat align 2 {
  %2 = alloca ptr, align 8
  store ptr %0, ptr %2, align 8
  %3 = load ptr, ptr %2, align 8
  %4 = load ptr, ptr %3, align 8
  %5 = call noundef ptr @_ZN4llvm16cast_convert_valINS_14ConstantSDNodeEPNS_6SDNodeES3_E4doitEPKS2_(ptr noundef %4)
  ret ptr %5
}

; Function Attrs: mustprogress nounwind uwtable
define linkonce_odr hidden noundef ptr @_ZN4llvm8CastInfoINS_14ConstantSDNodeEPNS_6SDNodeEvE10castFailedEv() #0 comdat align 2 {
  ret ptr null
}

; Function Attrs: mustprogress nounwind uwtable
define linkonce_odr hidden noundef zeroext i1 @_ZN4llvm14CastIsPossibleINS_14ConstantSDNodeEPNS_6SDNodeEvE10isPossibleERKS3_(ptr noundef nonnull align 8 dereferenceable(8) %0) #0 comdat align 2 {
  %2 = alloca ptr, align 8
  store ptr %0, ptr %2, align 8
  %3 = load ptr, ptr %2, align 8
  %4 = call noundef zeroext i1 @_ZN4llvm13isa_impl_wrapINS_14ConstantSDNodeEKPNS_6SDNodeEPKS2_E4doitERS4_(ptr noundef nonnull align 8 dereferenceable(8) %3)
  ret i1 %4
}

; Function Attrs: mustprogress nounwind uwtable
define linkonce_odr hidden noundef ptr @_ZNK4llvm7SDValue7getNodeEv(ptr noundef nonnull align 8 dereferenceable(12) %0) #0 comdat align 2 {
  %2 = alloca ptr, align 8
  store ptr %0, ptr %2, align 8
  %3 = load ptr, ptr %2, align 8
  %4 = getelementptr inbounds nuw %"class.llvm::SDValue", ptr %3, i32 0, i32 0
  %5 = load ptr, ptr %4, align 8
  ret ptr %5
}

; Function Attrs: mustprogress nounwind uwtable
define linkonce_odr hidden noundef i64 @_ZNK4llvm5APInt12getZExtValueEv(ptr noundef nonnull align 8 dereferenceable(12) %0) #0 comdat align 2 {
  %2 = alloca i64, align 8
  %3 = alloca ptr, align 8
  store ptr %0, ptr %3, align 8
  %4 = load ptr, ptr %3, align 8
  %5 = call noundef zeroext i1 @_ZNK4llvm5APInt12isSingleWordEv(ptr noundef nonnull align 8 dereferenceable(12) %4)
  br i1 %5, label %6, label %9

6:                                                ; preds = %1
  %7 = getelementptr inbounds nuw %"class.llvm::APInt", ptr %4, i32 0, i32 0
  %8 = load i64, ptr %7, align 8
  store i64 %8, ptr %2, align 8
  br label %14

9:                                                ; preds = %1
  %10 = getelementptr inbounds nuw %"class.llvm::APInt", ptr %4, i32 0, i32 0
  %11 = load ptr, ptr %10, align 8
  %12 = getelementptr inbounds i64, ptr %11, i64 0
  %13 = load i64, ptr %12, align 8
  store i64 %13, ptr %2, align 8
  br label %14

14:                                               ; preds = %9, %6
  %15 = load i64, ptr %2, align 8
  ret i64 %15
}

; Function Attrs: mustprogress nounwind uwtable
define linkonce_odr hidden noundef ptr @_ZN4llvm8CastInfoINS_14ConstantSDNodeEPNS_6SDNodeEvE16doCastIfPossibleERKS3_(ptr noundef nonnull align 8 dereferenceable(8) %0) #0 comdat align 2 {
  %2 = alloca ptr, align 8
  %3 = alloca ptr, align 8
  store ptr %0, ptr %3, align 8
  %4 = load ptr, ptr %3, align 8
  %5 = call noundef zeroext i1 @_ZN4llvm14CastIsPossibleINS_14ConstantSDNodeEPNS_6SDNodeEvE10isPossibleERKS3_(ptr noundef nonnull align 8 dereferenceable(8) %4)
  br i1 %5, label %8, label %6

6:                                                ; preds = %1
  %7 = call noundef ptr @_ZN4llvm8CastInfoINS_14ConstantSDNodeEPNS_6SDNodeEvE10castFailedEv()
  store ptr %7, ptr %2, align 8
  br label %11

8:                                                ; preds = %1
  %9 = load ptr, ptr %3, align 8
  %10 = call noundef ptr @_ZN4llvm8CastInfoINS_14ConstantSDNodeEPNS_6SDNodeEvE6doCastERKS3_(ptr noundef nonnull align 8 dereferenceable(8) %9)
  store ptr %10, ptr %2, align 8
  br label %11

11:                                               ; preds = %8, %6
  %12 = load ptr, ptr %2, align 8
  ret ptr %12
}

; Function Attrs: mustprogress nounwind uwtable
define linkonce_odr hidden noundef ptr @_ZN4llvm13simplify_typeINS_7SDValueEE18getSimplifiedValueERS1_(ptr noundef nonnull align 8 dereferenceable(12) %0) #0 comdat align 2 {
  %2 = alloca ptr, align 8
  store ptr %0, ptr %2, align 8
  %3 = load ptr, ptr %2, align 8
  %4 = call noundef ptr @_ZNK4llvm7SDValue7getNodeEv(ptr noundef nonnull align 8 dereferenceable(12) %3)
  ret ptr %4
}

; Function Attrs: mustprogress nounwind uwtable
define linkonce_odr hidden void @_ZN4llvm3MVTC2ENS0_15SimpleValueTypeE(ptr noundef nonnull align 2 dereferenceable(2) %0, i16 noundef zeroext %1) unnamed_addr #0 comdat align 2 {
  %3 = alloca ptr, align 8
  %4 = alloca i16, align 2
  store ptr %0, ptr %3, align 8
  store i16 %1, ptr %4, align 2
  %5 = load ptr, ptr %3, align 8
  %6 = getelementptr inbounds nuw %"class.llvm::MVT", ptr %5, i32 0, i32 0
  %7 = load i16, ptr %4, align 2
  store i16 %7, ptr %6, align 2
  ret void
}

; Function Attrs: mustprogress nounwind uwtable
define linkonce_odr hidden noundef i64 @_ZNK4llvm11ConstantInt12getZExtValueEv(ptr noundef nonnull align 8 dereferenceable(40) %0) #0 comdat align 2 {
  %2 = alloca ptr, align 8
  store ptr %0, ptr %2, align 8
  %3 = load ptr, ptr %2, align 8
  %4 = getelementptr inbounds nuw %"class.llvm::ConstantInt", ptr %3, i32 0, i32 1
  %5 = call noundef i64 @_ZNK4llvm5APInt12getZExtValueEv(ptr noundef nonnull align 8 dereferenceable(12) %4)
  ret i64 %5
}

; Function Attrs: mustprogress nounwind uwtable
define linkonce_odr hidden noundef ptr @_ZN4llvm8CastInfoINS_14ConstantSDNodeENS_7SDValueEvE16doCastIfPossibleERS2_(ptr noundef nonnull align 8 dereferenceable(12) %0) #0 comdat align 2 {
  %2 = alloca ptr, align 8
  %3 = alloca ptr, align 8
  store ptr %0, ptr %2, align 8
  %4 = load ptr, ptr %2, align 8
  %5 = call noundef ptr @_ZN4llvm13simplify_typeINS_7SDValueEE18getSimplifiedValueERS1_(ptr noundef nonnull align 8 dereferenceable(12) %4)
  store ptr %5, ptr %3, align 8
  %6 = call noundef ptr @_ZN4llvm8CastInfoINS_14ConstantSDNodeEPNS_6SDNodeEvE16doCastIfPossibleERKS3_(ptr noundef nonnull align 8 dereferenceable(8) %3)
  ret ptr %6
}

; Function Attrs: mustprogress nounwind uwtable
define linkonce_odr hidden void @_ZN4llvm3EVTC2ENS_3MVT15SimpleValueTypeE(ptr noundef nonnull align 8 dereferenceable(16) %0, i16 noundef zeroext %1) unnamed_addr #0 comdat align 2 {
  %3 = alloca ptr, align 8
  %4 = alloca i16, align 2
  store ptr %0, ptr %3, align 8
  store i16 %1, ptr %4, align 2
  %5 = load ptr, ptr %3, align 8
  %6 = getelementptr inbounds nuw %"struct.llvm::EVT", ptr %5, i32 0, i32 0
  %7 = load i16, ptr %4, align 2
  call void @_ZN4llvm3MVTC2ENS0_15SimpleValueTypeE(ptr noundef nonnull align 2 dereferenceable(2) %6, i16 noundef zeroext %7)
  %8 = getelementptr inbounds nuw %"struct.llvm::EVT", ptr %5, i32 0, i32 1
  store ptr null, ptr %8, align 8
  ret void
}

; Function Attrs: mustprogress nounwind uwtable
define linkonce_odr hidden noundef i64 @_ZNK4llvm14ConstantSDNode12getZExtValueEv(ptr noundef nonnull align 8 dereferenceable(96) %0) #0 comdat align 2 {
  %2 = alloca ptr, align 8
  store ptr %0, ptr %2, align 8
  %3 = load ptr, ptr %2, align 8
  %4 = getelementptr inbounds nuw %"class.llvm::ConstantSDNode", ptr %3, i32 0, i32 1
  %5 = load ptr, ptr %4, align 8
  %6 = call noundef i64 @_ZNK4llvm11ConstantInt12getZExtValueEv(ptr noundef nonnull align 8 dereferenceable(40) %5)
  ret i64 %6
}

; Function Attrs: mustprogress nounwind uwtable
define linkonce_odr hidden noundef ptr @_ZN4llvm8dyn_castINS_14ConstantSDNodeENS_7SDValueEEEDcRT0_(ptr noundef nonnull align 8 dereferenceable(12) %0) #0 comdat {
  %2 = alloca ptr, align 8
  store ptr %0, ptr %2, align 8
  %3 = load ptr, ptr %2, align 8
  %4 = call noundef ptr @_ZN4llvm8CastInfoINS_14ConstantSDNodeENS_7SDValueEvE16doCastIfPossibleERS2_(ptr noundef nonnull align 8 dereferenceable(12) %3)
  ret ptr %4
}

; Function Attrs: mustprogress nounwind uwtable
define internal noundef zeroext i1 @_ZN12_GLOBAL__N_119AArch64DAGToDAGISel8ImmToRegILj325ELj3EEEbN4llvm7SDValueERS3_(ptr noundef nonnull align 8 dereferenceable(280) %0, ptr %1, i32 %2, ptr noundef nonnull align 8 dereferenceable(12) %3) #0 align 2 {
  %5 = alloca i1, align 1
  %6 = alloca %"class.llvm::SDValue", align 8
  %7 = alloca ptr, align 8
  %8 = alloca ptr, align 8
  %9 = alloca ptr, align 8
  %10 = alloca i64, align 8
  %11 = alloca %"class.llvm::SDValue", align 8
  %12 = alloca %"struct.llvm::EVT", align 8
  %13 = alloca { ptr, i32 }, align 8
  %14 = getelementptr inbounds nuw { ptr, i32 }, ptr %6, i32 0, i32 0
  store ptr %1, ptr %14, align 8
  %15 = getelementptr inbounds nuw { ptr, i32 }, ptr %6, i32 0, i32 1
  store i32 %2, ptr %15, align 8
  store ptr %0, ptr %7, align 8
  store ptr %3, ptr %8, align 8
  %16 = load ptr, ptr %7, align 8
  %17 = call noundef ptr @_ZN4llvm8dyn_castINS_14ConstantSDNodeENS_7SDValueEEEDcRT0_(ptr noundef nonnull align 8 dereferenceable(12) %6)
  store ptr %17, ptr %9, align 8
  %18 = load ptr, ptr %9, align 8
  %19 = icmp ne ptr %18, null
  br i1 %19, label %20, label %38

20:                                               ; preds = %4
  %21 = load ptr, ptr %9, align 8
  %22 = call noundef i64 @_ZNK4llvm14ConstantSDNode12getZExtValueEv(ptr noundef nonnull align 8 dereferenceable(96) %21)
  store i64 %22, ptr %10, align 8
  %23 = load i64, ptr %10, align 8
  %24 = icmp ugt i64 %23, 3
  br i1 %24, label %25, label %26

25:                                               ; preds = %20
  store i1 false, ptr %5, align 1
  br label %39

26:                                               ; preds = %20
  %27 = getelementptr inbounds nuw %"class.llvm::SelectionDAGISel", ptr %16, i32 0, i32 8
  %28 = load ptr, ptr %27, align 8
  %29 = load i64, ptr %10, align 8
  %30 = add i64 325, %29
  %31 = trunc i64 %30 to i32
  call void @_ZN4llvm3EVTC2ENS_3MVT15SimpleValueTypeE(ptr noundef nonnull align 8 dereferenceable(16) %12, i16 noundef zeroext 1)
  %32 = getelementptr inbounds nuw { i16, ptr }, ptr %12, i32 0, i32 0
  %33 = load i16, ptr %32, align 8
  %34 = getelementptr inbounds nuw { i16, ptr }, ptr %12, i32 0, i32 1
  %35 = load ptr, ptr %34, align 8
  %36 = call { ptr, i32 } @_ZN4llvm12SelectionDAG11getRegisterEjNS_3EVTE(ptr noundef nonnull align 8 dereferenceable(904) %28, i32 noundef %31, i16 %33, ptr %35)
  store { ptr, i32 } %36, ptr %13, align 8
  call void @llvm.memcpy.p0.p0.i64(ptr align 8 %11, ptr align 8 %13, i64 12, i1 false)
  %37 = load ptr, ptr %8, align 8
  call void @llvm.memcpy.p0.p0.i64(ptr align 8 %37, ptr align 8 %11, i64 12, i1 false)
  store i1 true, ptr %5, align 1
  br label %39

38:                                               ; preds = %4
  store i1 false, ptr %5, align 1
  br label %39

39:                                               ; preds = %38, %26, %25
  %40 = load i1, ptr %5, align 1
  ret i1 %40
}