; Function Attrs: mustprogress nounwind uwtable
define internal fastcc noundef zeroext i1 @_ZN12_GLOBAL__N_119AArch64DAGToDAGISel8ImmToRegILj325ELj3EEEbN4llvm7SDValueERS3_(ptr %.64.val, ptr nocapture readonly %0, ptr nocapture noundef nonnull writeonly align 8 dereferenceable(12) %1) unnamed_addr #0 align 2 {
  %3 = getelementptr inbounds nuw i8, ptr %0, i64 24
  %4 = load i32, ptr %3, align 8
  switch i32 %4, label %_ZN4llvm8dyn_castINS_14ConstantSDNodeENS_7SDValueEEEDcRT0_.exit.thread [
    i32 35, label %_ZN4llvm8dyn_castINS_14ConstantSDNodeENS_7SDValueEEEDcRT0_.exit
    i32 11, label %_ZN4llvm8dyn_castINS_14ConstantSDNodeENS_7SDValueEEEDcRT0_.exit
  ]

_ZN4llvm8dyn_castINS_14ConstantSDNodeENS_7SDValueEEEDcRT0_.exit: ; preds = %2, %2
  %5 = getelementptr inbounds nuw i8, ptr %0, i64 88
  %6 = load ptr, ptr %5, align 8
  %7 = getelementptr inbounds nuw i8, ptr %6, i64 24
  %8 = getelementptr inbounds i8, ptr %6, i64 32
  %9 = load i32, ptr %8, align 8
  %10 = icmp ult i32 %9, 65
  %11 = load ptr, ptr %7, align 8
  %.0.in.i.i.i = select i1 %10, ptr %7, ptr %11
  %.0.i.i.i10 = load i64, ptr %.0.in.i.i.i, align 8
  %12 = icmp ugt i64 %.0.i.i.i10, 3
  br i1 %12, label %_ZN4llvm8dyn_castINS_14ConstantSDNodeENS_7SDValueEEEDcRT0_.exit.thread, label %13

13:                                               ; preds = %_ZN4llvm8dyn_castINS_14ConstantSDNodeENS_7SDValueEEEDcRT0_.exit
  %14 = trunc nuw i64 %.0.i.i.i10 to i32
  %15 = add nuw nsw i32 %14, 325
  %16 = tail call { ptr, i32 } @_ZN4llvm12SelectionDAG11getRegisterEjNS_3EVTE(ptr noundef nonnull align 8 dereferenceable(904) %.64.val, i32 noundef %15, i16 1, ptr null) #22
  %.fca.0.extract = extractvalue { ptr, i32 } %16, 0
  %.fca.1.extract = extractvalue { ptr, i32 } %16, 1
  store ptr %.fca.0.extract, ptr %1, align 8
  %.sroa.22.0..sroa_idx = getelementptr inbounds i8, ptr %1, i64 8
  store i32 %.fca.1.extract, ptr %.sroa.22.0..sroa_idx, align 8
  br label %_ZN4llvm8dyn_castINS_14ConstantSDNodeENS_7SDValueEEEDcRT0_.exit.thread

_ZN4llvm8dyn_castINS_14ConstantSDNodeENS_7SDValueEEEDcRT0_.exit.thread: ; preds = %2, %_ZN4llvm8dyn_castINS_14ConstantSDNodeENS_7SDValueEEEDcRT0_.exit, %13
  %.0 = phi i1 [ true, %13 ], [ false, %_ZN4llvm8dyn_castINS_14ConstantSDNodeENS_7SDValueEEEDcRT0_.exit ], [ false, %2 ]
  ret i1 %.0
}